; Function Attrs: mustprogress nofree nounwind uwtable
define noundef nonnull align 8 dereferenceable(112) ptr @_ZNK7testing19TestPartResultArray17GetTestPartResultEi(ptr noundef nonnull readonly align 8 captures(none) dereferenceable(24) %0, i32 noundef %1) local_unnamed_addr #19 align 2 {
  %3 = icmp slt i32 %1, 0
  br i1 %3, label %13, label %4

4:                                                ; preds = %2
  %5 = getelementptr inbounds nuw i8, ptr %0, i64 8
  %6 = load ptr, ptr %5, align 8, !tbaa !191
  %7 = load ptr, ptr %0, align 8, !tbaa !199
  %8 = ptrtoint ptr %6 to i64
  %9 = ptrtoint ptr %7 to i64
  %10 = sub i64 %8, %9
  %11 = sdiv exact i64 %10, 112
  %12 = trunc i64 %11 to i32
  %.not = icmp slt i32 %1, %12
  br i1 %.not, label %15, label %13

13:                                               ; preds = %4, %2
  %14 = tail call i32 (ptr, ...) @printf(ptr noundef nonnull dereferenceable(1) @.str.369, i32 noundef %1)
  tail call void @abort() #61
  unreachable

15:                                               ; preds = %4
  %16 = zext nneg i32 %1 to i64
  %17 = getelementptr inbounds nuw %"class.testing::TestPartResult", ptr %7, i64 %16
  ret ptr %17
}